target datalayout = "e-m:e-p270:32:32-p271:32:32-p272:64:64-i64:64-i128:128-f80:128-n8:16:32:64-S128"
target triple = "x86_64-pc-linux-gnu"

%struct.coap_common_dissect = type { %struct.anon, %struct.anon.0, %struct.anon.1 }
%struct.anon = type { i32, i32, i32, i32, i32, i32, i32, i32, i32, i32, i32, i32, i32, i32, i32, i32, i32, i32, i32, i32, i32, i32, i32, i32, i32, i32, i32, i32, i32, i32, i32, i32, i32, i32, i32, i32, i32, i32, i32, i32, i32, i32, i32, i32, i32, i32 }
%struct.anon.0 = type { i32, i32 }
%struct.anon.1 = type { %struct.expert_field, %struct.expert_field, %struct.expert_field, %struct.expert_field, %struct.expert_field }
%struct.expert_field = type { i32, i32 }

; Function Attrs: null_pointer_is_valid sspstrong uwtable
define hidden zeroext i8 @dissect_coap_code(ptr noundef %0, ptr noundef %1, ptr noundef %2, ptr noundef %3, ptr noundef %4) #1 {
  %6 = alloca ptr, align 8
  %7 = alloca ptr, align 8
  %8 = alloca ptr, align 8
  %9 = alloca ptr, align 8
  %10 = alloca ptr, align 8
  %11 = alloca i8, align 1
  store ptr %0, ptr %6, align 8
  store ptr %1, ptr %7, align 8
  store ptr %2, ptr %8, align 8
  store ptr %3, ptr %9, align 8
  store ptr %4, ptr %10, align 8
  call void @llvm.lifetime.start.p0(i64 1, ptr %11) #11
  %12 = load ptr, ptr %7, align 8
  %13 = load ptr, ptr %9, align 8
  %14 = getelementptr inbounds nuw %struct.coap_common_dissect, ptr %13, i32 0, i32 0
  %15 = getelementptr inbounds nuw %struct.anon, ptr %14, i32 0, i32 0
  %16 = load i32, ptr %15, align 4
  %17 = load ptr, ptr %6, align 8
  %18 = load ptr, ptr %8, align 8
  %19 = load i32, ptr %18, align 4
  %20 = call ptr @proto_tree_add_item(ptr noundef %12, i32 noundef %16, ptr noundef %17, i32 noundef %19, i32 noundef 1, i32 noundef 0)
  %21 = load ptr, ptr %6, align 8
  %22 = load ptr, ptr %8, align 8
  %23 = load i32, ptr %22, align 4
  %24 = call zeroext i8 @tvb_get_uint8(ptr noundef %21, i32 noundef %23)
  store i8 %24, ptr %11, align 1
  %25 = load i8, ptr %11, align 1
  %26 = zext i8 %25 to i32
  %27 = ashr i32 %26, 5
  %28 = trunc i32 %27 to i8
  %29 = load ptr, ptr %10, align 8
  store i8 %28, ptr %29, align 1
  %30 = load ptr, ptr %8, align 8
  %31 = load i32, ptr %30, align 4
  %32 = add i32 %31, 1
  store i32 %32, ptr %30, align 4
  %33 = load i8, ptr %11, align 1
  call void @llvm.lifetime.end.p0(i64 1, ptr %11) #11
  ret i8 %33
}