; Function Attrs: null_pointer_is_valid sspstrong uwtable
define hidden zeroext i8 @dissect_coap_code(ptr noundef %0, ptr noundef %1, ptr noundef captures(none) %2, ptr noundef readonly captures(none) %3, ptr noundef writeonly captures(none) initializes((0, 1)) %4) local_unnamed_addr #1 {
  %6 = load i32, ptr %3, align 4
  %7 = load i32, ptr %2, align 4
  %8 = tail call ptr @proto_tree_add_item(ptr noundef %1, i32 noundef %6, ptr noundef %0, i32 noundef %7, i32 noundef 1, i32 noundef 0)
  %9 = load i32, ptr %2, align 4
  %10 = tail call zeroext i8 @tvb_get_uint8(ptr noundef %0, i32 noundef %9)
  %11 = lshr i8 %10, 5
  store i8 %11, ptr %4, align 1
  %12 = load i32, ptr %2, align 4
  %13 = add i32 %12, 1
  store i32 %13, ptr %2, align 4
  ret i8 %10
}